target datalayout = "e-m:e-p270:32:32-p271:32:32-p272:64:64-i64:64-i128:128-f80:128-n8:16:32:64-S128"
target triple = "x86_64-unknown-linux-gnu"

%"class.smt::eq_justification" = type { ptr }
%class.ptr_vector = type { %class.vector }
%class.vector = type { ptr }
%class.app = type { %class.expr, ptr, i32, [0 x ptr] }
%class.expr = type { %class.ast }
%class.ast = type { i32, i24, i32, i32 }
%"class.smt::enode" = type { ptr, ptr, ptr, ptr, i32, i32, i32, i16, i32, i8, i8, %class.ptr_vector, %class.id_var_list, %"struct.smt::trans_justification", %class.approx_set, %class.approx_set, [0 x ptr] }
%class.id_var_list = type { i32, ptr }
%"struct.smt::trans_justification" = type { ptr, %"class.smt::eq_justification" }
%class.approx_set = type { %class.approx_set_tpl }
%class.approx_set_tpl = type { i64 }
%"struct.smt::theory_array_base::sel_khasher" = type { i8 }
%"struct.smt::theory_array_base::sel_chasher" = type { i8 }

; Function Attrs: mustprogress nounwind uwtable
define linkonce_odr hidden noundef i32 @_ZNK3app12get_num_argsEv(ptr noundef nonnull align 8 dereferenceable(32) %this) #4 comdat align 2 {
entry:
  %this.addr = alloca ptr, align 8
  store ptr %this, ptr %this.addr, align 8
  %this1 = load ptr, ptr %this.addr, align 8
  %m_num_args = getelementptr inbounds %class.app, ptr %this1, i32 0, i32 2
  %0 = load i32, ptr %m_num_args, align 8
  ret i32 %0
}

; Function Attrs: mustprogress nounwind uwtable
define linkonce_odr hidden noundef i32 @_ZNK3smt5enode12get_num_argsEv(ptr noundef nonnull align 8 dereferenceable(112) %this) #4 comdat align 2 {
entry:
  %this.addr = alloca ptr, align 8
  store ptr %this, ptr %this.addr, align 8
  %this1 = load ptr, ptr %this.addr, align 8
  %m_suppress_args = getelementptr inbounds %"class.smt::enode", ptr %this1, i32 0, i32 7
  %bf.load = load i16, ptr %m_suppress_args, align 4
  %bf.lshr = lshr i16 %bf.load, 3
  %bf.clear = and i16 %bf.lshr, 1
  %bf.cast = zext i16 %bf.clear to i32
  %tobool = icmp ne i32 %bf.cast, 0
  br i1 %tobool, label %cond.true, label %cond.false

cond.true:                                        ; preds = %entry
  br label %cond.end

cond.false:                                       ; preds = %entry
  %m_owner = getelementptr inbounds %"class.smt::enode", ptr %this1, i32 0, i32 0
  %0 = load ptr, ptr %m_owner, align 8
  %call = call noundef i32 @_ZNK3app12get_num_argsEv(ptr noundef nonnull align 8 dereferenceable(32) %0)
  br label %cond.end

cond.end:                                         ; preds = %cond.false, %cond.true
  %cond = phi i32 [ 0, %cond.true ], [ %call, %cond.false ]
  ret i32 %cond
}

; Function Attrs: mustprogress uwtable
define hidden noundef i32 @_ZNK3smt17theory_array_base8sel_hashclEPNS_5enodeE(ptr noundef nonnull align 1 dereferenceable(1) %this, ptr noundef %n) #5 align 2 {
entry:
  %this.addr = alloca ptr, align 8
  %n.addr = alloca ptr, align 8
  %ref.tmp = alloca %"struct.smt::theory_array_base::sel_khasher", align 1
  %ref.tmp2 = alloca %"struct.smt::theory_array_base::sel_chasher", align 1
  store ptr %this, ptr %this.addr, align 8
  store ptr %n, ptr %n.addr, align 8
  %0 = load ptr, ptr %n.addr, align 8
  %1 = load ptr, ptr %n.addr, align 8
  %call = call noundef i32 @_ZNK3smt5enode12get_num_argsEv(ptr noundef nonnull align 8 dereferenceable(112) %1)
  %sub = sub i32 %call, 1
  %call3 = call noundef i32 @_Z18get_composite_hashIPN3smt5enodeENS0_17theory_array_base11sel_khasherENS3_11sel_chasherEEjT_jRKT0_RKT1_(ptr noundef %0, i32 noundef %sub, ptr noundef nonnull align 1 dereferenceable(1) %ref.tmp, ptr noundef nonnull align 1 dereferenceable(1) %ref.tmp2)
  ret i32 %call3
}