; Function Attrs: mustprogress uwtable
define hidden noundef i32 @_ZNK3smt17theory_array_base8sel_hashclEPNS_5enodeE(ptr nocapture noundef nonnull readnone align 1 dereferenceable(1) %this, ptr noundef %n) local_unnamed_addr #3 align 2 {
entry:
  %ref.tmp = alloca %"struct.smt::theory_array_base::sel_khasher", align 1
  %ref.tmp2 = alloca %"struct.smt::theory_array_base::sel_chasher", align 1
  %m_suppress_args.i = getelementptr inbounds i8, ptr %n, i64 44
  %bf.load.i = load i16, ptr %m_suppress_args.i, align 4
  %0 = and i16 %bf.load.i, 8
  %tobool.not.i = icmp eq i16 %0, 0
  br i1 %tobool.not.i, label %cond.false.i, label %_ZNK3smt5enode12get_num_argsEv.exit

cond.false.i:                                     ; preds = %entry
  %1 = load ptr, ptr %n, align 8
  %m_num_args.i.i = getelementptr inbounds i8, ptr %1, i64 24
  %2 = load i32, ptr %m_num_args.i.i, align 8
  %3 = add i32 %2, -1
  br label %_ZNK3smt5enode12get_num_argsEv.exit

_ZNK3smt5enode12get_num_argsEv.exit:              ; preds = %entry, %cond.false.i
  %cond.i = phi i32 [ %3, %cond.false.i ], [ -1, %entry ]
  %call3 = call noundef i32 @_Z18get_composite_hashIPN3smt5enodeENS0_17theory_array_base11sel_khasherENS3_11sel_chasherEEjT_jRKT0_RKT1_(ptr noundef nonnull %n, i32 noundef %cond.i, ptr noundef nonnull align 1 dereferenceable(1) %ref.tmp, ptr noundef nonnull align 1 dereferenceable(1) %ref.tmp2)
  ret i32 %call3
}